target datalayout = "e-m:e-p270:32:32-p271:32:32-p272:64:64-i64:64-i128:128-f80:128-n8:16:32:64-S128"
target triple = "x86_64-pc-linux-gnu"

@dt_modifier_shortcuts = global i32 0, align 4

; Function Attrs: nounwind uwtable
define internal float @_action_process_modifiers(ptr noundef %0, i32 noundef %1, i32 noundef %2, float noundef %3) #0 {
  %5 = alloca ptr, align 8
  %6 = alloca i32, align 4
  %7 = alloca i32, align 4
  %8 = alloca float, align 4
  %9 = alloca i32, align 4
  store ptr %0, ptr %5, align 8, !tbaa !6
  store i32 %1, ptr %6, align 4, !tbaa !10
  store i32 %2, ptr %7, align 4, !tbaa !10
  store float %3, ptr %8, align 4, !tbaa !12
  call void @llvm.lifetime.start.p0(i64 4, ptr %9) #10
  store i32 1, ptr %9, align 4, !tbaa !10
  %10 = load i32, ptr %6, align 4, !tbaa !10
  %11 = icmp ne i32 %10, 0
  br i1 %11, label %12, label %17

12:                                               ; preds = %4
  %13 = load i32, ptr %6, align 4, !tbaa !10
  %14 = add nsw i32 %13, 1
  %15 = load i32, ptr %9, align 4, !tbaa !10
  %16 = shl i32 %15, %14
  store i32 %16, ptr %9, align 4, !tbaa !10
  br label %17

17:                                               ; preds = %12, %4
  %18 = load float, ptr %8, align 4, !tbaa !12
  %19 = fcmp reassoc nsz arcp contract afn une float %18, 0xC7EFFFFFE0000000
  br i1 %19, label %20, label %43

20:                                               ; preds = %17
  %21 = load i32, ptr @dt_modifier_shortcuts, align 4, !tbaa !10
  %22 = load i32, ptr %9, align 4, !tbaa !10
  %23 = and i32 %21, %22
  %24 = icmp ne i32 %23, 0
  br i1 %24, label %25, label %34

25:                                               ; preds = %20
  %26 = load i32, ptr %7, align 4, !tbaa !10
  %27 = icmp ne i32 %26, 1
  br i1 %27, label %28, label %33

28:                                               ; preds = %25
  %29 = load i32, ptr %9, align 4, !tbaa !10
  %30 = xor i32 %29, -1
  %31 = load i32, ptr @dt_modifier_shortcuts, align 4, !tbaa !10
  %32 = and i32 %31, %30
  store i32 %32, ptr @dt_modifier_shortcuts, align 4, !tbaa !10
  br label %33

33:                                               ; preds = %28, %25
  br label %42

34:                                               ; preds = %20
  %35 = load i32, ptr %7, align 4, !tbaa !10
  %36 = icmp ne i32 %35, 2
  br i1 %36, label %37, label %41

37:                                               ; preds = %34
  %38 = load i32, ptr %9, align 4, !tbaa !10
  %39 = load i32, ptr @dt_modifier_shortcuts, align 4, !tbaa !10
  %40 = or i32 %39, %38
  store i32 %40, ptr @dt_modifier_shortcuts, align 4, !tbaa !10
  br label %41

41:                                               ; preds = %37, %34
  br label %42

42:                                               ; preds = %41, %33
  br label %43

43:                                               ; preds = %42, %17
  %44 = load i32, ptr @dt_modifier_shortcuts, align 4, !tbaa !10
  %45 = call i32 (...) @dt_key_modifier_state()
  %46 = or i32 %44, %45
  %47 = load i32, ptr %9, align 4, !tbaa !10
  %48 = and i32 %46, %47
  %49 = icmp ne i32 %48, 0
  %50 = zext i1 %49 to i32
  %51 = sitofp i32 %50 to float
  call void @llvm.lifetime.end.p0(i64 4, ptr %9) #10
  ret float %51
}