; Function Attrs: nounwind uwtable
define internal float @_action_process_modifiers(ptr readnone captures(none) %0, i32 noundef %1, i32 noundef %2, float noundef %3) #0 {
  %.not = icmp eq i32 %1, 0
  %5 = add nsw i32 %1, 1
  %6 = shl nuw i32 1, %5
  %.0 = select i1 %.not, i32 1, i32 %6
  %7 = fcmp reassoc nsz arcp contract afn une float %3, 0xC7EFFFFFE0000000
  %.pre = load i32, ptr @dt_modifier_shortcuts, align 4, !tbaa !69
  br i1 %7, label %8, label %17

8:                                                ; preds = %4
  %9 = and i32 %.pre, %.0
  %.not10 = icmp eq i32 %9, 0
  br i1 %.not10, label %14, label %10

10:                                               ; preds = %8
  %.not12 = icmp eq i32 %2, 1
  br i1 %.not12, label %17, label %11

11:                                               ; preds = %10
  %12 = xor i32 %.0, -1
  %13 = and i32 %.pre, %12
  br label %.sink.split

14:                                               ; preds = %8
  %.not11 = icmp eq i32 %2, 2
  br i1 %.not11, label %17, label %15

15:                                               ; preds = %14
  %16 = or i32 %.pre, %.0
  br label %.sink.split

.sink.split:                                      ; preds = %15, %11
  %.sink = phi i32 [ %13, %11 ], [ %16, %15 ]
  store i32 %.sink, ptr @dt_modifier_shortcuts, align 4, !tbaa !69
  br label %17

17:                                               ; preds = %.sink.split, %10, %14, %4
  %18 = phi i32 [ %.pre, %10 ], [ %.pre, %14 ], [ %.pre, %4 ], [ %.sink, %.sink.split ]
  %19 = tail call i32 (...) @dt_key_modifier_state() #13
  %20 = or i32 %19, %18
  %21 = and i32 %20, %.0
  %22 = icmp ne i32 %21, 0
  %23 = uitofp i1 %22 to float
  ret float %23
}